target datalayout = "e-m:e-p270:32:32-p271:32:32-p272:64:64-i64:64-i128:128-f80:128-n8:16:32:64-S128"
target triple = "x86_64-pc-linux-gnu"

%struct.jpeg_compress_struct = type { ptr, ptr, ptr, ptr, i32, i32, ptr, i32, i32, i32, i32, double, i32, i32, i32, ptr, [4 x ptr], [4 x ptr], [4 x ptr], [16 x i8], [16 x i8], [16 x i8], i32, ptr, i32, i32, i32, i32, i32, i32, i32, i32, i32, i8, i8, i8, i16, i16, i32, i32, i32, i32, i32, i32, i32, [4 x ptr], i32, i32, i32, [10 x i32], i32, i32, i32, i32, ptr, ptr, ptr, ptr, ptr, ptr, ptr, ptr, ptr, ptr, i32 }
%struct.gif_source_struct = type { %struct.cjpeg_source_struct, ptr, ptr, [260 x i8], i32, i32, i32, i32, i32, i32, i32, i32, i32, i32, i32, i32, i32, ptr, ptr, ptr, ptr, i32, ptr, i32, i32, i32, i32 }
%struct.cjpeg_source_struct = type { ptr, ptr, ptr, ptr, ptr, ptr, ptr, i32, i32 }

; Function Attrs: nounwind uwtable
define internal i32 @get_pixel_rows(ptr noundef %0, ptr noundef %1) #0 {
  %3 = alloca ptr, align 8
  %4 = alloca ptr, align 8
  %5 = alloca ptr, align 8
  %6 = alloca i32, align 4
  %7 = alloca ptr, align 8
  %8 = alloca i32, align 4
  %9 = alloca ptr, align 8
  store ptr %0, ptr %3, align 8, !tbaa !4
  store ptr %1, ptr %4, align 8, !tbaa !49
  call void @llvm.lifetime.start.p0(i64 8, ptr %5) #3
  %10 = load ptr, ptr %4, align 8, !tbaa !49
  store ptr %10, ptr %5, align 8, !tbaa !37
  call void @llvm.lifetime.start.p0(i64 4, ptr %6) #3
  call void @llvm.lifetime.start.p0(i64 8, ptr %7) #3
  call void @llvm.lifetime.start.p0(i64 4, ptr %8) #3
  call void @llvm.lifetime.start.p0(i64 8, ptr %9) #3
  %11 = load ptr, ptr %5, align 8, !tbaa !37
  %12 = getelementptr inbounds nuw %struct.gif_source_struct, ptr %11, i32 0, i32 2
  %13 = load ptr, ptr %12, align 8, !tbaa !58
  store ptr %13, ptr %9, align 8, !tbaa !84
  %14 = load ptr, ptr %5, align 8, !tbaa !37
  %15 = getelementptr inbounds nuw %struct.gif_source_struct, ptr %14, i32 0, i32 0
  %16 = getelementptr inbounds nuw %struct.cjpeg_source_struct, ptr %15, i32 0, i32 4
  %17 = load ptr, ptr %16, align 8, !tbaa !76
  %18 = getelementptr inbounds ptr, ptr %17, i64 0
  %19 = load ptr, ptr %18, align 8, !tbaa !79
  store ptr %19, ptr %7, align 8, !tbaa !79
  %20 = load ptr, ptr %3, align 8, !tbaa !4
  %21 = getelementptr inbounds nuw %struct.jpeg_compress_struct, ptr %20, i32 0, i32 10
  %22 = load i32, ptr %21, align 4, !tbaa !74
  %23 = icmp eq i32 %22, 1
  br i1 %23, label %24, label %47

24:                                               ; preds = %2
  %25 = load ptr, ptr %3, align 8, !tbaa !4
  %26 = getelementptr inbounds nuw %struct.jpeg_compress_struct, ptr %25, i32 0, i32 7
  %27 = load i32, ptr %26, align 8, !tbaa !82
  store i32 %27, ptr %8, align 4, !tbaa !54
  br label %28

28:                                               ; preds = %43, %24
  %29 = load i32, ptr %8, align 4, !tbaa !54
  %30 = icmp ugt i32 %29, 0
  br i1 %30, label %31, label %46

31:                                               ; preds = %28
  %32 = load ptr, ptr %5, align 8, !tbaa !37
  %33 = call i32 @LZWReadByte(ptr noundef %32)
  store i32 %33, ptr %6, align 4, !tbaa !54
  %34 = load ptr, ptr %9, align 8, !tbaa !84
  %35 = getelementptr inbounds ptr, ptr %34, i64 0
  %36 = load ptr, ptr %35, align 8, !tbaa !79
  %37 = load i32, ptr %6, align 4, !tbaa !54
  %38 = sext i32 %37 to i64
  %39 = getelementptr inbounds i8, ptr %36, i64 %38
  %40 = load i8, ptr %39, align 1, !tbaa !32
  %41 = load ptr, ptr %7, align 8, !tbaa !79
  %42 = getelementptr inbounds nuw i8, ptr %41, i32 1
  store ptr %42, ptr %7, align 8, !tbaa !79
  store i8 %40, ptr %41, align 1, !tbaa !32
  br label %43

43:                                               ; preds = %31
  %44 = load i32, ptr %8, align 4, !tbaa !54
  %45 = add i32 %44, -1
  store i32 %45, ptr %8, align 4, !tbaa !54
  br label %28, !llvm.loop !104

46:                                               ; preds = %28
  br label %88

47:                                               ; preds = %2
  %48 = load ptr, ptr %3, align 8, !tbaa !4
  %49 = getelementptr inbounds nuw %struct.jpeg_compress_struct, ptr %48, i32 0, i32 7
  %50 = load i32, ptr %49, align 8, !tbaa !82
  store i32 %50, ptr %8, align 4, !tbaa !54
  br label %51

51:                                               ; preds = %84, %47
  %52 = load i32, ptr %8, align 4, !tbaa !54
  %53 = icmp ugt i32 %52, 0
  br i1 %53, label %54, label %87

54:                                               ; preds = %51
  %55 = load ptr, ptr %5, align 8, !tbaa !37
  %56 = call i32 @LZWReadByte(ptr noundef %55)
  store i32 %56, ptr %6, align 4, !tbaa !54
  %57 = load ptr, ptr %9, align 8, !tbaa !84
  %58 = getelementptr inbounds ptr, ptr %57, i64 0
  %59 = load ptr, ptr %58, align 8, !tbaa !79
  %60 = load i32, ptr %6, align 4, !tbaa !54
  %61 = sext i32 %60 to i64
  %62 = getelementptr inbounds i8, ptr %59, i64 %61
  %63 = load i8, ptr %62, align 1, !tbaa !32
  %64 = load ptr, ptr %7, align 8, !tbaa !79
  %65 = getelementptr inbounds nuw i8, ptr %64, i32 1
  store ptr %65, ptr %7, align 8, !tbaa !79
  store i8 %63, ptr %64, align 1, !tbaa !32
  %66 = load ptr, ptr %9, align 8, !tbaa !84
  %67 = getelementptr inbounds ptr, ptr %66, i64 1
  %68 = load ptr, ptr %67, align 8, !tbaa !79
  %69 = load i32, ptr %6, align 4, !tbaa !54
  %70 = sext i32 %69 to i64
  %71 = getelementptr inbounds i8, ptr %68, i64 %70
  %72 = load i8, ptr %71, align 1, !tbaa !32
  %73 = load ptr, ptr %7, align 8, !tbaa !79
  %74 = getelementptr inbounds nuw i8, ptr %73, i32 1
  store ptr %74, ptr %7, align 8, !tbaa !79
  store i8 %72, ptr %73, align 1, !tbaa !32
  %75 = load ptr, ptr %9, align 8, !tbaa !84
  %76 = getelementptr inbounds ptr, ptr %75, i64 2
  %77 = load ptr, ptr %76, align 8, !tbaa !79
  %78 = load i32, ptr %6, align 4, !tbaa !54
  %79 = sext i32 %78 to i64
  %80 = getelementptr inbounds i8, ptr %77, i64 %79
  %81 = load i8, ptr %80, align 1, !tbaa !32
  %82 = load ptr, ptr %7, align 8, !tbaa !79
  %83 = getelementptr inbounds nuw i8, ptr %82, i32 1
  store ptr %83, ptr %7, align 8, !tbaa !79
  store i8 %81, ptr %82, align 1, !tbaa !32
  br label %84

84:                                               ; preds = %54
  %85 = load i32, ptr %8, align 4, !tbaa !54
  %86 = add i32 %85, -1
  store i32 %86, ptr %8, align 4, !tbaa !54
  br label %51, !llvm.loop !105

87:                                               ; preds = %51
  br label %88

88:                                               ; preds = %87, %46
  call void @llvm.lifetime.end.p0(i64 8, ptr %9) #3
  call void @llvm.lifetime.end.p0(i64 4, ptr %8) #3
  call void @llvm.lifetime.end.p0(i64 8, ptr %7) #3
  call void @llvm.lifetime.end.p0(i64 4, ptr %6) #3
  call void @llvm.lifetime.end.p0(i64 8, ptr %5) #3
  ret i32 1
}