; Function Attrs: nounwind uwtable
define internal noundef i32 @get_pixel_rows(ptr noundef readonly captures(none) %0, ptr noundef captures(none) %1) #0 {
  %3 = getelementptr inbounds nuw i8, ptr %1, i64 72
  %4 = load ptr, ptr %3, align 8, !tbaa !52
  %5 = getelementptr inbounds nuw i8, ptr %1, i64 32
  %6 = load ptr, ptr %5, align 8, !tbaa !81
  %7 = load ptr, ptr %6, align 8, !tbaa !83
  %8 = getelementptr inbounds nuw i8, ptr %0, i64 60
  %9 = load i32, ptr %8, align 4, !tbaa !79
  %10 = icmp eq i32 %9, 1
  %11 = getelementptr inbounds nuw i8, ptr %0, i64 48
  %12 = load i32, ptr %11, align 8, !tbaa !85
  %.not2530 = icmp eq i32 %12, 0
  br i1 %10, label %13, label %21

13:                                               ; preds = %2
  br i1 %.not2530, label %.loopexit, label %.lr.ph33

.lr.ph33:                                         ; preds = %13, %.lr.ph33
  %.032 = phi i32 [ %20, %.lr.ph33 ], [ %12, %13 ]
  %.02331 = phi ptr [ %19, %.lr.ph33 ], [ %7, %13 ]
  %14 = tail call fastcc i32 @LZWReadByte(ptr noundef %1)
  %15 = load ptr, ptr %4, align 8, !tbaa !83
  %16 = sext i32 %14 to i64
  %17 = getelementptr inbounds i8, ptr %15, i64 %16
  %18 = load i8, ptr %17, align 1, !tbaa !30
  %19 = getelementptr inbounds nuw i8, ptr %.02331, i64 1
  store i8 %18, ptr %.02331, align 1, !tbaa !30
  %20 = add i32 %.032, -1
  %.not25 = icmp eq i32 %20, 0
  br i1 %.not25, label %.loopexit, label %.lr.ph33, !llvm.loop !99

21:                                               ; preds = %2
  br i1 %.not2530, label %.loopexit, label %.lr.ph

.lr.ph:                                           ; preds = %21
  %22 = getelementptr inbounds nuw i8, ptr %4, i64 8
  %23 = getelementptr inbounds nuw i8, ptr %4, i64 16
  br label %24

24:                                               ; preds = %.lr.ph, %24
  %.129 = phi i32 [ %12, %.lr.ph ], [ %39, %24 ]
  %.12428 = phi ptr [ %7, %.lr.ph ], [ %38, %24 ]
  %25 = tail call fastcc i32 @LZWReadByte(ptr noundef %1)
  %26 = load ptr, ptr %4, align 8, !tbaa !83
  %27 = sext i32 %25 to i64
  %28 = getelementptr inbounds i8, ptr %26, i64 %27
  %29 = load i8, ptr %28, align 1, !tbaa !30
  %30 = getelementptr inbounds nuw i8, ptr %.12428, i64 1
  store i8 %29, ptr %.12428, align 1, !tbaa !30
  %31 = load ptr, ptr %22, align 8, !tbaa !83
  %32 = getelementptr inbounds i8, ptr %31, i64 %27
  %33 = load i8, ptr %32, align 1, !tbaa !30
  %34 = getelementptr inbounds nuw i8, ptr %.12428, i64 2
  store i8 %33, ptr %30, align 1, !tbaa !30
  %35 = load ptr, ptr %23, align 8, !tbaa !83
  %36 = getelementptr inbounds i8, ptr %35, i64 %27
  %37 = load i8, ptr %36, align 1, !tbaa !30
  %38 = getelementptr inbounds nuw i8, ptr %.12428, i64 3
  store i8 %37, ptr %34, align 1, !tbaa !30
  %39 = add i32 %.129, -1
  %.not = icmp eq i32 %39, 0
  br i1 %.not, label %.loopexit, label %24, !llvm.loop !100

.loopexit:                                        ; preds = %24, %.lr.ph33, %21, %13
  ret i32 1
}